target datalayout = "e-m:e-p270:32:32-p271:32:32-p272:64:64-i64:64-i128:128-f80:128-n8:16:32:64-S128"
target triple = "x86_64-pc-linux-gnu"

; Function Attrs: nounwind uwtable
define i32 @ff_toupper4(i32 noundef %0) #0 {
  %2 = alloca i32, align 4
  store i32 %0, ptr %2, align 4, !tbaa !4
  %3 = load i32, ptr %2, align 4, !tbaa !4
  %4 = and i32 %3, 255
  %5 = call i32 @av_toupper(i32 noundef %4) #2
  %6 = load i32, ptr %2, align 4, !tbaa !4
  %7 = lshr i32 %6, 8
  %8 = and i32 %7, 255
  %9 = call i32 @av_toupper(i32 noundef %8) #2
  %10 = shl i32 %9, 8
  %11 = or i32 %5, %10
  %12 = load i32, ptr %2, align 4, !tbaa !4
  %13 = lshr i32 %12, 16
  %14 = and i32 %13, 255
  %15 = call i32 @av_toupper(i32 noundef %14) #2
  %16 = shl i32 %15, 16
  %17 = or i32 %11, %16
  %18 = load i32, ptr %2, align 4, !tbaa !4
  %19 = lshr i32 %18, 24
  %20 = and i32 %19, 255
  %21 = call i32 @av_toupper(i32 noundef %20) #2
  %22 = shl i32 %21, 24
  %23 = or i32 %17, %22
  ret i32 %23
}

; Function Attrs: inlinehint nounwind willreturn memory(none) uwtable
define internal i32 @av_toupper(i32 noundef %0) #1 {
  %2 = alloca i32, align 4
  store i32 %0, ptr %2, align 4, !tbaa !4
  %3 = load i32, ptr %2, align 4, !tbaa !4
  %4 = icmp sge i32 %3, 97
  br i1 %4, label %5, label %11

5:                                                ; preds = %1
  %6 = load i32, ptr %2, align 4, !tbaa !4
  %7 = icmp sle i32 %6, 122
  br i1 %7, label %8, label %11

8:                                                ; preds = %5
  %9 = load i32, ptr %2, align 4, !tbaa !4
  %10 = xor i32 %9, 32
  store i32 %10, ptr %2, align 4, !tbaa !4
  br label %11

11:                                               ; preds = %8, %5, %1
  %12 = load i32, ptr %2, align 4, !tbaa !4
  ret i32 %12
}


!llvm.module.flags = !{!0, !1, !2, !3}

!0 = !{i32 1, !"wchar_size", i32 4}
!1 = !{i32 8, !"PIC Level", i32 2}
!2 = !{i32 7, !"uwtable", i32 2}
!3 = !{i32 1, !"override-stack-alignment", i32 16}
!4 = !{!5, !5, i64 0}
!5 = !{!"int", !6, i64 0}
!6 = !{!"omnipotent char", !7, i64 0}
!7 = !{!"Simple C/C++ TBAA"}
